target datalayout = "e-m:e-p270:32:32-p271:32:32-p272:64:64-i64:64-i128:128-f80:128-n8:16:32:64-S128"
target triple = "x86_64-pc-linux-gnu"

; Function Attrs: mustprogress nounwind uwtable
define dso_local noundef ptr @_ZN11cmXMLParser13FindAttributeEPPKcS1_(ptr noundef %0, ptr noundef %1) #4 align 2 {
  %3 = alloca ptr, align 8
  %4 = alloca ptr, align 8
  %5 = alloca ptr, align 8
  %6 = alloca ptr, align 8
  store ptr %0, ptr %4, align 8
  store ptr %1, ptr %5, align 8
  %7 = load ptr, ptr %4, align 8
  %8 = icmp ne ptr %7, null
  br i1 %8, label %9, label %40

9:                                                ; preds = %2
  %10 = load ptr, ptr %5, align 8
  %11 = icmp ne ptr %10, null
  br i1 %11, label %12, label %40

12:                                               ; preds = %9
  %13 = load ptr, ptr %4, align 8
  store ptr %13, ptr %6, align 8
  br label %14

14:                                               ; preds = %36, %12
  %15 = load ptr, ptr %6, align 8
  %16 = load ptr, ptr %15, align 8
  %17 = icmp ne ptr %16, null
  br i1 %17, label %18, label %23

18:                                               ; preds = %14
  %19 = load ptr, ptr %6, align 8
  %20 = getelementptr inbounds ptr, ptr %19, i64 1
  %21 = load ptr, ptr %20, align 8
  %22 = icmp ne ptr %21, null
  br label %23

23:                                               ; preds = %18, %14
  %24 = phi i1 [ false, %14 ], [ %22, %18 ]
  br i1 %24, label %25, label %39

25:                                               ; preds = %23
  %26 = load ptr, ptr %6, align 8
  %27 = load ptr, ptr %26, align 8
  %28 = load ptr, ptr %5, align 8
  %29 = call i32 @strcmp(ptr noundef %27, ptr noundef %28) #12
  %30 = icmp eq i32 %29, 0
  br i1 %30, label %31, label %35

31:                                               ; preds = %25
  %32 = load ptr, ptr %6, align 8
  %33 = getelementptr inbounds ptr, ptr %32, i64 1
  %34 = load ptr, ptr %33, align 8
  store ptr %34, ptr %3, align 8
  br label %41

35:                                               ; preds = %25
  br label %36

36:                                               ; preds = %35
  %37 = load ptr, ptr %6, align 8
  %38 = getelementptr inbounds ptr, ptr %37, i64 2
  store ptr %38, ptr %6, align 8
  br label %14, !llvm.loop !5

39:                                               ; preds = %23
  br label %40

40:                                               ; preds = %39, %9, %2
  store ptr null, ptr %3, align 8
  br label %41

41:                                               ; preds = %40, %31
  %42 = load ptr, ptr %3, align 8
  ret ptr %42
}