; Function Attrs: mustprogress nofree nounwind willreturn memory(read, inaccessiblemem: none) uwtable
define dso_local noundef ptr @_ZN11cmXMLParser13FindAttributeEPPKcS1_(ptr noundef readonly %0, ptr noundef readonly %1) local_unnamed_addr #10 align 2 {
  %3 = icmp ne ptr %0, null
  %4 = icmp ne ptr %1, null
  %or.cond = and i1 %3, %4
  br i1 %or.cond, label %.preheader, label %.critedge

.preheader:                                       ; preds = %2
  %5 = load ptr, ptr %0, align 8
  %.not17 = icmp eq ptr %5, null
  br i1 %.not17, label %.critedge, label %.lr.ph

6:                                                ; preds = %12
  %7 = getelementptr inbounds i8, ptr %.018, i64 16
  %8 = load ptr, ptr %7, align 8
  %.not = icmp eq ptr %8, null
  br i1 %.not, label %.critedge, label %.lr.ph, !llvm.loop !5

.lr.ph:                                           ; preds = %.preheader, %6
  %9 = phi ptr [ %8, %6 ], [ %5, %.preheader ]
  %.018 = phi ptr [ %7, %6 ], [ %0, %.preheader ]
  %10 = getelementptr inbounds i8, ptr %.018, i64 8
  %11 = load ptr, ptr %10, align 8
  %.not16 = icmp eq ptr %11, null
  br i1 %.not16, label %.critedge, label %12

12:                                               ; preds = %.lr.ph
  %13 = tail call i32 @strcmp(ptr noundef nonnull dereferenceable(1) %9, ptr noundef nonnull dereferenceable(1) %1) #17
  %14 = icmp eq i32 %13, 0
  br i1 %14, label %.critedge, label %6

.critedge:                                        ; preds = %12, %.lr.ph, %6, %.preheader, %2
  %.011 = phi ptr [ null, %2 ], [ null, %.preheader ], [ %11, %12 ], [ null, %.lr.ph ], [ null, %6 ]
  ret ptr %.011
}